target datalayout = "e-m:e-p270:32:32-p271:32:32-p272:64:64-i64:64-i128:128-f80:128-n8:16:32:64-S128"
target triple = "x86_64-pc-linux-gnu"

; Function Attrs: nounwind uwtable
define hidden void @PMurHash128x86(ptr noundef %0, i32 noundef %1, i32 noundef %2, ptr noundef %3) #0 {
  %5 = alloca ptr, align 8
  %6 = alloca i32, align 4
  %7 = alloca i32, align 4
  %8 = alloca ptr, align 8
  %9 = alloca [4 x i32], align 16
  %10 = alloca [4 x i32], align 16
  store ptr %0, ptr %5, align 8
  store i32 %1, ptr %6, align 4
  store i32 %2, ptr %7, align 4
  store ptr %3, ptr %8, align 8
  call void @llvm.memset.p0.i64(ptr align 16 %9, i8 0, i64 16, i1 false)
  %11 = getelementptr inbounds [4 x i32], ptr %10, i64 0, i64 0
  %12 = load i32, ptr %7, align 4
  store i32 %12, ptr %11, align 4
  %13 = getelementptr inbounds i32, ptr %11, i64 1
  %14 = load i32, ptr %7, align 4
  store i32 %14, ptr %13, align 4
  %15 = getelementptr inbounds i32, ptr %13, i64 1
  %16 = load i32, ptr %7, align 4
  store i32 %16, ptr %15, align 4
  %17 = getelementptr inbounds i32, ptr %15, i64 1
  %18 = load i32, ptr %7, align 4
  store i32 %18, ptr %17, align 4
  %19 = getelementptr inbounds [4 x i32], ptr %10, i64 0, i64 0
  %20 = getelementptr inbounds [4 x i32], ptr %9, i64 0, i64 0
  %21 = load ptr, ptr %5, align 8
  %22 = load i32, ptr %6, align 4
  call void @PMurHash128x86_Process(ptr noundef %19, ptr noundef %20, ptr noundef %21, i32 noundef %22)
  %23 = getelementptr inbounds [4 x i32], ptr %10, i64 0, i64 0
  %24 = getelementptr inbounds [4 x i32], ptr %9, i64 0, i64 0
  %25 = load i32, ptr %6, align 4
  %26 = load ptr, ptr %8, align 8
  call void @PMurHash128x86_Result(ptr noundef %23, ptr noundef %24, i32 noundef %25, ptr noundef %26)
  ret void
}