; Function Attrs: nofree norecurse nosync nounwind memory(read, argmem: readwrite, inaccessiblemem: none) uwtable
define hidden void @PMurHash128x86(ptr noundef %0, i32 noundef %1, i32 noundef %2, ptr nocapture noundef writeonly %3) local_unnamed_addr #1 {
  %5 = alloca [4 x i32], align 16
  %6 = alloca [4 x i32], align 16
  call void @llvm.memset.p0.i64(ptr noundef nonnull align 16 dereferenceable(16) %5, i8 0, i64 16, i1 false)
  %7 = insertelement <4 x i32> poison, i32 %2, i64 0
  %8 = shufflevector <4 x i32> %7, <4 x i32> poison, <4 x i32> zeroinitializer
  store <4 x i32> %8, ptr %6, align 16
  call void @PMurHash128x86_Process(ptr noundef nonnull %6, ptr noundef nonnull %5, ptr noundef %0, i32 noundef %1)
  call void @PMurHash128x86_Result(ptr noundef nonnull %6, ptr noundef nonnull %5, i32 noundef %1, ptr noundef %3)
  ret void
}